(dp0
VNick Bunch
p1
(lp2
Vnickbunch13
p3
aVNick_Bunch
p4
aVnickbunch
p5
aVBunchucks
p6
aVNickJBunch
p7
aVbunch81
p8
aVBunchaBananas
p9
aVNickBunch2
p10
aVnickbunch4491
p11
aVnickbunch1
p12
aVNBunch89
p13
aVjnbunch
p14
aVnbunch26
p15
aVBunch89
p16
asVSung Hee Kim
p17
(lp18
Vsungh2x
p19
aVKSH1014
p20
aVSungHeeKIM0111
p21
aVsunnyoxford
p22
aVfrances1121
p23
aVSHsunghee
p24
aVgemmakim55
p25
aVMaster_pt5
p26
aVpnbkim
p27
aVSHKimrocks
p28
aVshkamsi
p29
aVbutnega
p30
aVbutroger
p31
aVsungheekim1
p32
aVhideseven7
p33
aVksmozy
p34
aVdailes85
p35
aVsungheek25
p36
aVyouriksh
p37
asVAndrew McLennan
p38
(lp39
Vandrewmclennan
p40
aVtrailquest
p41
aVAndyMac_15
p42
aVandymclennan
p43
aVandmcl
p44
aVandymac2020
p45
aVAndy__McLennan
p46
aVmobilityoz
p47
aV12_moose_12
p48
aVDrewmcl82
p49
aVAndrewMcLennan1
p50
aVandrewrhona47
p51
aVDREWMAC411
p52
aVAndrew_McLennan
p53
aVMooseMcLennan
p54
aVandymac22
p55
aVandy_mc_2012
p56
aVAndrewWays
p57
aVtherealyou1968
p58
aVSmosh_jets
p59
asVJustin Isaf
p60
(lp61
VBinaryNomads
p62
asVWenjia Bai
p63
(lp64
sVLily Chhatwal
p65
(lp66
Vllymlrs
p67
asVCinna Wu
p68
(lp69
Vcinnawu
p70
asVAdi de la Zerda
p71
(lp72
sVSuresh Vallabhaneni
p73
(lp74
Vplutomcorp
p75
aV__suresh__
p76
aVvsuresh143
p77
aVONLINEGIFTING
p78
aVzingwallet
p79
aVbobbyvallabh
p80
aVGIFTINGONLINE
p81
aVvallabhanenisur
p82
asVNatalie Lundsteen
p83
(lp84
Vbakeanddestroy
p85
asVWing Dawn
p86
(lp87
VBroken_Wing1973
p88
aVDawnCherieWing
p89
aVwing_dawn
p90
aVDawnWingDPD
p91
aVkdwing
p92
asVThomas Marichal
p93
(lp94
Vtomarichal
p95
aVdalacher
p96
asVSarah Patterson
p97
(lp98
VUACoachSarah
p99
aV_sarahpatterson
p100
aVsarahpattyuk
p101
aVSarahEPatterson
p102
aVSarahPatterswag
p103
aVVa_Tech_Sarah
p104
aVsarahbpatty
p105
aVpatterson_sarah
p106
aVsurrahpatt
p107
aVskm2388
p108
aVSarahJordyn1
p109
aVSarah_Patterson
p110
aVSarah_Elspeth
p111
aVspattycake
p112
aVsarahlpatterson
p113
aVpattersonsarah
p114
aVsarahpatte
p115
aVSazpat
p116
aVsmcpatterson
p117
aVprincesszany
p118
asVPaul Gurney
p119
(lp120
Vpdgurney
p121
aVinsideoutlabs
p122
aVGurniesta
p123
aVPGurn
p124
aVPaulNeilGurney
p125
aVgurn677
p126
aVPGurney
p127
aVpaulgurney11111
p128
aVPaulGurney78
p129
aVPaulGurney1
p130
aVpgurns
p131
aVexacro_paul
p132
aVgurndog18
p133
aVpaulgur
p134
aVcomboot
p135
aVpdgden
p136
aVPaulGurney2
p137
aVPaulGurney3
p138
aVaskdocgurney
p139
asVGiovanna Miritello
p140
(lp141
Vgmiritello
p142
asVRamon Casero
p143
(lp144
VRamon_Casero
p145
aVjosecaseroyo
p146
aVramoncasero
p147
aVfrasesgraciosas
p148
asVJulien Schweicher
p149
(lp150
Vjulienschweich
p151
aVSiphan0
p152
asVShivika Sahdev
p153
(lp154
sVWilliam Marshall
p155
(lp156
VWdsM1872
p157
aVWamart1965
p158
aVWilliamMarshal1
p159
aVWilliamMarshall
p160
aVPastorWMarshall
p161
aVwill_A_marshall
p162
aVwmdmarshall
p163
aVwcmarshall
p164
aVwilliammarshal4
p165
aVmrbweave
p166
aVlinkmarshal
p167
aVWMarshallPianos
p168
aVWillGMarshall
p169
aVOrthoMdhelp
p170
aVwmarshall1
p171
aVWilLiaM_DuggiiE
p172
aV3gSwagg
p173
aVWill_Marshall
p174
aVwill_mars
p175
asVSungwon Yoon
p176
(lp177
Vsyoon003
p178
aVYOONSUNGWON
p179
aVniketurks
p180
aVpporori_77
p181
aVCafe_nakaMeguro
p182
aVmuhagoinno
p183
aVYSW1984
p184
aVssungwori
p185
aVmogiiiiparis
p186
aVhalitey
p187
aVItsSungwon
p188
aVbestspider
p189
aVnovewony
p190
aVsean7553
p191
aVEvelyn_Yoon
p192
aVsunysw40
p193
aVsamsungdesign
p194
aVmerry_Madwolf
p195
aVgenius4582
p196
asVJonathan Hirsch
p197
(lp198
VJonathanHirsch
p199
aVjon_hirsch
p200
aVjonathanihirsch
p201
aVhirschlawfirm
p202
aVjonathanikkyu
p203
aVhirschlaw
p204
aVjonathanhershey
p205
aVjhirsch12
p206
aVjonathanhirsch2
p207
aVjonathanhirsch1
p208
aVJonathanAHirsch
p209
aVjhirsch39
p210
aVDodgerfansonly
p211
aVMrJHirsch
p212
aVjarthur64
p213
aVJonix8
p214
aVHirschJonathan
p215
aVKingKlecks
p216
aVtweetjonny96
p217
aVFreiWild1
p218
asVAditi Shrivastava
p219
(lp220
VAditiK29
p221
aVtrendyaditi
p222
aVIamAditie
p223
aVsnowjenny13
p224
aVaditithedude
p225
aVaditi_aditi
p226
aVadi16s
p227
aVditi4
p228
aVAditiAditi88
p229
aVAditiShriv
p230
aVShrivastava_07
p231
aVaditi300
p232
aVhappygoaddy
p233
aVaditishr
p234
aVAditi30051991
p235
aVaditi2207
p236
aVangeladitie
p237
aVAditiShrivasta4
p238
aVaditi96
p239
aVAditiShrivasta3
p240
asVMin-Sun Son
p241
(lp242
sVPearl Siganporia
p243
(lp244
sVMark Gooding
p245
(lp246
Vmgoo121
p247
aVM_Gooding_711
p248
asVDanielle Weiss
p249
(lp250
Vdanirweiss
p251
aVdanielleweiss1
p252
aVdweezy0727
p253
aVDEWEISSS
p254
aVDanielleInPeru
p255
aVWeissDanielle
p256
aVdanyweiss
p257
aVdaniellleweiss
p258
aVdanihampton
p259
aVDanielleWeiss63
p260
aVdanikweiss
p261
aVbarbarianweiss
p262
aVdanielleweiss3
p263
aVdanifaithw
p264
aVDaniPhantom3553
p265
aVdanielleweiss12
p266
aVDaniWeiss1022
p267
aVDanielleWeiss33
p268
aVdaniiielleeee
p269
aVLuvinLife09
p270
asVJonathan Wu
p271
(lp272
VmrJonathanwu
p273
aVjonathangwu
p274
aVwupopsup
p275
aVwutinjun
p276
aVkvinwu
p277
aViJooW
p278
aVjonsonwu
p279
aVrealjonwu
p280
aVjaywuster
p281
aVjonathanwu6
p282
aVJonathanWu84
p283
aVJWu4
p284
aVjonathan_wu1
p285
aVmeisterw
p286
aVjwu181
p287
aVJwu934
p288
aVjetsman617
p289
aVjonathanwu607
p290
aVkingjonnywuwoo
p291
asVAshish Mehra
p292
(lp293
Vashishmehra
p294
aVashishmehra12
p295
aVitsaashiee80
p296
aVaashish14mehra
p297
aV_mehraji
p298
aVashishmehra1
p299
aV_iAmAsh
p300
aVekaamaadmi
p301
aVmehra_ak
p302
aVviratashish
p303
aVAshish_Mehra
p304
aVAshuMehra92
p305
aVashishmehra786
p306
aVAshishmehra11
p307
aVashishmehra16
p308
aVashishmehra0214
p309
aVashishmehra03
p310
aVashishmehra1724
p311
aVashishmehra92
p312
aVashishmehra22
p313
asVYiannis Ventikos
p314
(lp315
sVRicardo Pinho
p316
(lp317
Vricardopiinho
p318
aVrfpinho1
p319
aVRickpinho2
p320
aVRICO_PNH
p321
aVRpinho
p322
aVRicardoPinho1
p323
aVRikics1212
p324
aVRicardo_Trainer
p325
aVricardopinho5
p326
aVricardopinho
p327
aVricardopinho_11
p328
asVJoseph Gallagher
p329
(lp330
VJoeGalla
p331
aVJosephGallagher
p332
aVjgallagheruk
p333
aVjophuds
p334
aVYellowLedJoseph
p335
aV_IamJoey_
p336
aVgallagherisgood
p337
aVUnspokenDream
p338
aVJoegallagher29
p339
aVjosephgall
p340
aVjoesue44
p341
aVThe_JRG
p342
aVGBroseph
p343
aVjegocfc
p344
aVjosephgall87
p345
aVJoeasis
p346
aVJosephG_92
p347
aVUjima_Village
p348
aVManimalism
p349
aVjgallagher92
p350
asVAndrew Blanckaert
p351
(lp352
sVJayadev Vadakkanmarveettil
p353
(lp354
sVSashank Rishyasringa
p355
(lp356
Vsashankr
p357
asVSusan Kopiwoda
p358
(lp359
VSusanKopiwoda
p360
aVstusandenum
p361
asVJeroen Corthout
p362
(lp363
VJeroenCorthout
p364
asVEmily Withnall
p365
(lp366
Vemilywithnall
p367
aVemrodman
p368
asVLisa Martin
p369
(lp370
Vlisamartin
p371
aVFaceTwinkSA
p372
aVlisamartin__
p373
aVlisamartin123
p374
aVLisaTMartin
p375
aVLisaClaire24
p376
aVlisamartin53
p377
aVMetronumm
p378
aVlisamartin00
p379
aVlisaamartin1
p380
aVlisamartin131
p381
aVLisaMartinInt
p382
aVLisaMartinNC
p383
aVlisamartinlouro
p384
aVlisamartin913
p385
aVLisaMartin_LFS
p386
aVlisamartin25
p387
aVlisamartin76
p388
aVLisamartin316
p389
aVLisaMar83906244
p390
asVMatthias Baenninger
p391
(lp392
Vmbaennin
p393
asVNick Hughes
p394
(lp395
VNickHughes1878
p396
aVNiickHughes
p397
aVnickfaldo
p398
aVjnickhughes
p399
aVNickhughes_
p400
aVnickhughes01
p401
aVNickHughesAW
p402
aVnickelarse999
p403
aVNickHughes87
p404
aVnickhughes92
p405
aVNick__Hughes
p406
aVnickhughes_72
p407
aVNHughes69
p408
aVhughes111
p409
aVcasaphoenix
p410
aVnickulo
p411
aVnickhughes80
p412
aVnickhughes04
p413
aVnico261
p414
aVKFMarcoms
p415
asVClara Olander
p416
(lp417
Vcfolander
p418
aVClaraOlander
p419
asVScott Woody
p420
(lp421
VThaddeusScott
p422
aVl3amm
p423
aVs_wood_87
p424
asVKashmali Khan
p425
(lp426
VKashmaliKhan
p427
asVSam Gambhir
p428
(lp429
Vsam_gambhir
p430
aVsamgambhir
p431
aVAvocadoPear
p432
asVSamira Zayane
p433
(lp434
VSammira_x
p435
aVsammira_ms
p436
aVSammira_oclone
p437
aVxSAMMIRA_
p438
asVNiranjan Joshi
p439
(lp440
Vjniranjan
p441
aVjoshiniranjan86
p442
aVNiranjanjoshi
p443
aVniranjan_joshi
p444
aVnk_jonty
p445
aVniranjan21joshi
p446
aVNIRANJANJOSHI2
p447
aVniranjanjoshi76
p448
aVniranjanjoshi4
p449
aVNiranjanjoshi7
p450
aVniranjanjoshi14
p451
aVniranjanjoshi5
p452
aVniranjanortho
p453
aVniranjangunner
p454
aVsneha22niranjan
p455
aVs4shashi
p456
aVniru1979
p457
aVniranjansjoshi9
p458
aVnirubhaiji
p459
aVngjoshi
p460
asVMbrady9258 Brady
p461
(lp462
sVPhan Thoong
p463
(lp464
sVMegan Cartwright
p465
(lp466
Vmegcartwri
p467
aV_Blind_Side
p468
aVMeg_Cartwright
p469
aVlbchorus
p470
aVmegan_bc
p471
aVMegCartwright
p472
aVMeggCartwright
p473
aVMegan_cart123
p474
aVmegancartwright
p475
aVMeganMarieC
p476
aVMegsC15
p477
aVMeggocart89
p478
aVmegancartwri
p479
aVMegCartwright5
p480
aVMusicalMegan91
p481
aVmcartwright11
p482
aVMegcartw
p483
aVspecimenMeg
p484
aVCartwrightMeg
p485
aVmeganisfoxy
p486
asVDarren Morofke
p487
(lp488
sVFrancis Meerburg
p489
(lp490
sVTom Dawson
p491
(lp492
VTDawsonVisuals
p493
aVtom_daws
p494
aVMeTomDawson
p495
aVTheSportingMind
p496
aVtomdawson86
p497
aVTomDawson
p498
aVTomDawson83
p499
aVTomdawson_1
p500
aVtomdawson97
p501
aVHaudricourt
p502
aVtomdawson23
p503
aVTom__Dawson
p504
aVTom_official1
p505
aVtommytucker55
p506
aVTomDawson08
p507
aVdawsonsleek
p508
aVTomDawson03
p509
aVdawsont1
p510
aVTheTomDawson98
p511
asVRobert Johnson
p512
(lp513
VRobertjohnson32
p514
aVJohnsonRW
p515
aVRobertJohnsonNH
p516
aVRun4Ducks
p517
aVrojovisual
p518
aVRWJNYU
p519
aVRJsBlues
p520
aVRJLeadWell
p521
aVOfficialRJBlues
p522
aVLilPhroTheTsar
p523
aVRojoGoHogs
p524
aVrobojohnson
p525
aVrburkej
p526
aV1888BUILDER
p527
aV32_IS_BACK
p528
aVRob_Johnson3
p529
aVRobshotphoto
p530
aVRJohnsonMusic
p531
aVRobertJohnson
p532
aVRobHatesHoes
p533
asVStephanie Van de Ven
p534
(lp535
Vmyvision_sv
p536
aVstephyglasses
p537
aVsteefven
p538
aVStephanie_vdVen
p539
aVstephanievdven
p540
asVIshdeep Sawhney
p541
(lp542
Vishdeeps
p543
aVIshdeepSawhney
p544
asVChristophe Restif
p545
(lp546
sVLuisa Lam Siu
p547
(lp548
Vlukalasi
p549
asVRaimond Winslow
p550
(lp551
Vrwinslo1
p552
asVSolomon Diamond
p553
(lp554
Vzeze_let
p555
asVQasim Raza
p556
(lp557
Vraza_sms2
p558
aVqasimrazaawan
p559
aVqasimraza1974
p560
aVQasimQueso
p561
aVCh_Qasim_Raza
p562
aVqasimraza1964
p563
aVqasim241
p564
aVshortyProd
p565
aVchallney
p566
aVSyedQasimRaza13
p567
aVgreatqsm
p568
aVqasimraza7
p569
aVQasimRaza20
p570
aVqasraz
p571
aVRazaQasim005
p572
aVQasimraza711
p573
aVjafri_qasim
p574
aVMqasimraza
p575
aVqasimraza4
p576
asVSally Zhang
p577
(lp578
Vsallyzhang2014
p579
aVsallyoktavia2
p580
aVaszsl
p581
aVsallyzhang52
p582
aVSallyzhang17
p583
aVsallyzhang1014
p584
aVsallyzhang85
p585
aVsallyzhang89
p586
aVsallyzhang40
p587
aVt_tsally
p588
aVSallyZhang623
p589
aVsally_zhang
p590
aVsarita_zhang
p591
aVlovie_sally
p592
aVsallyfzhang
p593
aVYimengZ
p594
aVSallyZL
p595
aVsallysummer
p596
aVsallyyue12
p597
aVSallyZhang2
p598
asVRobert Teed
p599
(lp600
Vbonfireapps
p601
aVbigteed330
p602
aVrobteed48808
p603
aVrteed
p604
aVRTeed23
p605
aVrobt69
p606
aVrobertteed
p607
aVteed12
p608
aVRobertteedTeed
p609
aVRobertteedTeed2
p610
aVRobRobertteed
p611
aVteedr
p612
asVRamin Miri
p613
(lp614
VRaminMiri
p615
aVr20m20
p616
asVDhruv Kazi
p617
(lp618
V_waxinggibbous
p619
asVRajeev Dhiman
p620
(lp621
Vrajeevdhiman88
p622
aVRajeevdhiman8
p623
aVrajeevdhiman30
p624
aVrajeevdhiman10
p625
aVdhimanrajeev
p626
aVRajeevdhiman9
p627
aVRajeevdhiman4
p628
aVrajeevdhiman23
p629
aVrajeevdhiman11
p630
aV9816831072
p631
aVRajeevDhiman89
p632
aVraj009_dhiman
p633
aVRajeev72dhiman
p634
aVRajeev_dhm1986
p635
aVRajeevDhiman6
p636
aVrd8125
p637
aVRajeevDhiman5
p638
aVgrvmynr123
p639
aVrajeev2206
p640
aVdhiman_81rajeev
p641
asVMathijs Zandbergen
p642
(lp643
sVZoe Hoster
p644
(lp645
VZozeeBo
p646
aVzoehoster
p647
asVSeya Manawamma
p648
(lp649
VNethupulee
p650
asVMichelle James
p651
(lp652
VBrain_Matters
p653
aVCreatvEmergence
p654
aVmichellejames17
p655
aVmichellejames3
p656
aVbrowneyedbaker
p657
aVmichelle_daley
p658
aVJeTaime_Moi91
p659
aVMichelleJJames
p660
aVmiche11ejames
p661
aVCLUB_43
p662
aVmichellerella01
p663
aVMichelle__MCR
p664
aVmacjam47
p665
aVtruevinci
p666
aVmichellejames25
p667
aVM7james
p668
aVmichellejjames1
p669
aVMichelle_James_
p670
aVjusaskME_chelle
p671
asVRobbie Shade
p672
(lp673
Vrjshade
p674
asVDavid Lopes Pegna
p675
(lp676
sVDiane Wu
p677
(lp678
Vdna_nerd
p679
aVd_wu
p680
aVdianewu
p681
aVdianejwu
p682
aVdancingstars144
p683
aVfmylifedsw
p684
aVyo_wazzzup
p685
aVblindedbatman
p686
aVDelenaSeduction
p687
aVDianeWu2
p688
aVdianew2oa
p689
aVdiane_wu
p690
aVDianeeeeeeeeeee
p691
aVdwu99
p692
asVSabine Vangrunderbeek
p693
(lp694
sVMathieu Van
p695
(lp696
Vmathieuvanlinde
p697
aVMathieuvanDijl
p698
aVmathieuvandeven
p699
aVMattMcField
p700
aVMadonis
p701
aVMathieuvanRooij
p702
aVDarkknow
p703
aVMathieuWel
p704
aVMathieuvBergen
p705
aVmmwvdw
p706
aVmathvaw
p707
aVMathieuvanGent
p708
aVm_thieu
p709
aVMatVanGeo
p710
aVmathieuvansluis
p711
aVmathieuvan3l
p712
aVMatje103
p713
aVmvdberk
p714
aVTweetStraat
p715
asVKeoki Seu
p716
(lp717
VKeokiSeu
p718
asVMatthew Hollow
p719
(lp720
VMatthewHollow
p721
aVMattCutler123
p722
aVhrobby43
p723
asVLindsay Goodlin
p724
(lp725
VLindsayGoodlin
p726
asVChristian Behrenbruch
p727
(lp728
sVPaul Goodall
p729
(lp730
VPaulinusMaximus
p731
aVMrG_MathsEd
p732
aVPaulGoodall96
p733
aVSirGoodall
p734
aVGoody2shoesPaul
p735
aVMussyLad
p736
aVPAULGOODALL7
p737
aVF150pickup
p738
aVPaulGoodalll
p739
aVpaulgoodall73
p740
aVgoodall_paul
p741
aVpaulgoodall
p742
aVPaulGoodall5
p743
aVpaulgoodall10
p744
aVPaulgoodall47
p745
aVPaulGoodall4
p746
aVPaulDGoodall
p747
aVrexgoods
p748
asVJustin Parrella
p749
(lp750
VJustinParrella
p751
asVLeen De Meulenaer
p752
(lp753
VLDeMeulenaer
p754
asVPeter Hersh
p755
(lp756
Vpeterhersh
p757
aVPeterHersh1
p758
aVHobokenNJ07030
p759
asVOlivier Noterdaeme
p760
(lp761
sVEtienne Von Lavante
p762
(lp763
sVSaeed Mohammadi
p764
(lp765
Vsaeed_mv
p766
aVsaeedmohammadi6
p767
aVsaeedmohammadi
p768
aVsaeedmohammadi4
p769
aVsaeedmohammadi9
p770
aVsaeedmohammadi2
p771
aVsaeedmohammadi5
p772
aVsaeedmohammadi1
p773
aVsaeed156
p774
aVInsomniAc_Nillo
p775
aVsaeed2mohammadi
p776
aV11Saeedmx
p777
aVsaeed_11728
p778
aVSaeed1389mSaeed
p779
aVsaeed620
p780
aVdrsaeed5224
p781
aVkhosrokhb
p782
aVsaeedmohammad20
p783
aVSaeedmo20776439
p784
aVsaeedmahmmadi
p785
asVNathan Herring
p786
(lp787
Vnherring
p788
aVnathanherring44
p789
aVnathan_herring
p790
aVHerringPsych
p791
aV3nathanherring3
p792
aVNathanHerring
p793
aVndherring
p794
aVherring_nathan
p795
aVlittle81fish
p796
aVNHerring3
p797
aVfuturenherring
p798
aVhellraser11
p799
aVnh366
p800
aVherringfv1
p801
asVGary J Kunkel
p802
(lp803
VKunkelGary
p804
aVGaryKunkel
p805
aVgary_kunkel
p806
aVcarolinaguy54
p807
aVgkunkel
p808
aVsoundguygk
p809
aVkunk9
p810
aVKunkelMac
p811
aVKunkdog
p812
aVgbob1960
p813
asVEmily Lever
p814
(lp815
VEmilyLever
p816
aVEmiLever1
p817
aVEmily_Lever
p818
aVemily_ell
p819
aVEmi_Lever
p820
aVematsunrise
p821
aVemrodman
p822
asVXan Chacko
p823
(lp824
sVKristin Mayer
p825
(lp826
VKristinMayer
p827
aVkristinmayerr
p828
aVkaymay11420
p829
aVkrmcountrygirl
p830
aVkmayersea
p831
aVKristinMayer1
p832
aVKristinMayer9
p833
aVkexetmayer
p834
aVNeEdLoVe2009
p835
aVmayerhk
p836
aVcathater09
p837
aVmayer_kristin
p838
aVKristinMayer2
p839
aVkristinvxibi
p840
aVKristinMayer80
p841
aVkjelborg
p842
aVKJM555
p843
aVpacobelley
p844
aVMissKaa77
p845
asVTumena Corrah
p846
(lp847
sVGersom Victor Aliaga Ferrufino
p848
(lp849
sVOlivier Gevaert
p850
(lp851
sVAnnika Leienbach
p852
(lp853
VAnnikaLeienbach
p854
asVBettina Miguez
p855
(lp856
sVNicolas Gasztych
p857
(lp858
Vcherryteam1
p859
asVSiddharth Shah
p860
(lp861
VActor_Siddharth
p862
aVdrsidshah
p863
aVplus_91
p864
aVsiddharthvshah
p865
aVsiddharthnshah
p866
aVsiddharthshah1
p867
aVsiddharthshah70
p868
aV__sid__
p869
aVbigsidd
p870
aVsiddharthshah12
p871
aVseo_solution
p872
aVsiddharths123
p873
aVdcsiddharth
p874
aVsidhem
p875
aVShahSiddharthr
p876
aVsiddharthsshah
p877
asVBeth Chang
p878
(lp879
Vbethchang
p880
aVbchangsf
p881
aVbethchang7
p882
aVBethChang1
p883
aVetollers
p884
aVsiungit
p885
aVbethchangwqye
p886
aVBethBibirtv
p887
aVlll_UGLY_lll
p888
aVbethaco
p889
aVBethChang15
p890
aVBethCha25386112
p891
asVRuss Renzas
p892
(lp893
sVAngela Cummine
p894
(lp895
Vmamavirgo
p896
asVJesse Jokerst
p897
(lp898
VInformed_Imager
p899
asVJayodita Sanghvi
p900
(lp901
sVKarel-Alexander Duerloo
p902
(lp903
sVJohn Axerio-Cilies
p904
(lp905
sVKay Henning Brodersen
p906
(lp907
sVSamuel Evans
p908
(lp909
Vsdevans88
p910
aVsamuelevans37
p911
aVsamuelbevans
p912
aVTravelinBites
p913
aVsamuelevans997
p914
aVsamuelTevans
p915
aVsamuelevans20
p916
aVStingX2
p917
aVMskye10
p918
aVSamLynnEvans
p919
aVnewkidSam
p920
aVsamwelo
p921
aVsmevans3
p922
aVSoKySam
p923
aVdr_dreeey
p924
aVSamEvansChicago
p925
aVginger_1245
p926
asVQi Guo
p927
(lp928
VGuoJieQi1
p929
aVethangq
p930
aVgooqii
p931
aVGuoqi82
p932
aVadamkq
p933
aVGuoJieQi2
p934
aVggqq666
p935
aViamdavidguo
p936
aVgq13965786
p937
aVguoqi94
p938
aVxiaoqizuibang
p939
aVimoonkey
p940
aVGoKi_casa
p941
aVguoqi2009
p942
aVGuoQi1
p943
aVYNWA_GL
p944
aVGlanzQi
p945
asVManuj Garg
p946
(lp947
Vmanujgarg
p948
aVManuj_Garg
p949
aVmanujgarg845
p950
aVManujGarg1993
p951
aVMANUJGARG1
p952
aVmanuj23
p953
aVManuj_4342
p954
aV_8704887490701
p955
aVmanujgarg007
p956
aVManujGarg6
p957
asVBo Dai
p958
(lp959
Vdaivivo
p960
aVBoDaiTribe
p961
aVDaii_bo
p962
asVRoberto Gutierrez
p963
(lp964
Vrobertoastroboy
p965
aVrobjunior27
p966
aVgutierrezr
p967
aVAgenciaANNCOL
p968
aVtycopantaleon
p969
aVRob_Gutierrezmo
p970
aVRGutierrez22
p971
aVRobertoelsocial
p972
aVRoberttalks
p973
aVjuditas666
p974
aVJROBERTO300
p975
aVmadboxx1
p976
aVdodyhaslam
p977
aVsiganalrorro
p978
aVrobertg06
p979
aVe_rrez
p980
aVroberto20seg
p981
aVrogucas1
p982
aVelguti09
p983
aVbeettogtz
p984
asVPiotr Orlowski
p985
(lp986
Vpiotrorlowski
p987
aVpiotr_orlowski
p988
aVorleone1
p989
aVorzel1116
p990
aVsupapeda
p991
aVporlow
p992
aVpiotrtalka
p993
aVnigraspl
p994
aVPiotrOrowski2
p995
aVOrowskiPiotr
p996
aVpiomax5
p997
aVQsywen
p998
aVPiotrOrowski1
p999
aVIolarGuth
p1000
aVopiotrek79
p1001
aVPpPawe
p1002
aVPiotrusOrlowski
p1003
aVp7bzz8qx4
p1004
aVs662h6827
p1005
asVSulzhan Bali
p1006
(lp1007
Vsulzhan
p1008
asVSharon Hori
p1009
(lp1010
VHoriSharon
p1011
aVNotYourWifey_
p1012
asVRene Morkos
p1013
(lp1014
sVTheresa Johnson
p1015
(lp1016
Vtheresajohnson
p1017
aVmissjohnson
p1018
aVtweet2tj
p1019
aVTheresa_Johnson
p1020
aVLaDoctoraGTJ
p1021
aV3sajohnson
p1022
aVteajsongcloud
p1023
aVtreevamp13
p1024
aVJOHNRESA
p1025
aVjohnson_theresa
p1026
aVt_christine
p1027
aVTesstify_19
p1028
aVtajohnson1
p1029
aVSiamsa
p1030
aVbaby4500
p1031
aVMarketingCSM
p1032
aVBlonde40ishMom
p1033
aVJohnsonTheresa
p1034
aVtheresajohnson9
p1035
aVTheresaJohnson4
p1036
asVNicholas Sergeant
p1037
(lp1038
sVAnar Simpson
p1039
(lp1040
VAnarSimpson
p1041
asVEvan Mayo-Wilson
p1042
(lp1043
sVStefan Jaeger
p1044
(lp1045
Vstef_jaeger
p1046
aVd00t
p1047
aVf150Jaeger
p1048
aVstefanjaeg
p1049
aVsjaeger82
p1050
aVdrstefanjaeger
p1051
aVJaegerStefan
p1052
aVsjaeger83
p1053
aVPsyquil
p1054
aVStefanJaeger1
p1055
aVjaeger_stefan
p1056
aVjaeger_info
p1057
aVstefandejaeger
p1058
aVMantowJaeger
p1059
asVRobert Balogh
p1060
(lp1061
VRobertBaylow
p1062
aVROBERTBALOGH
p1063
aVrobert_balogh
p1064
aVbalfrob
p1065
aVvwjetta052100
p1066
aVrobmen9
p1067
aVbaloghr78
p1068
aVrobroy1980
p1069
aVroberitto
p1070
aVbalogh_robert
p1071
aVrobika79
p1072
aV__Robi_
p1073
aVblacktara123
p1074
aVBaloghRobert2
p1075
aVgimmethegeek
p1076
aVroockybalboa
p1077
aV88Balogh
p1078
aVRobertBalogh1
p1079
aVRobcsi1976
p1080
asVGilles Van de Sompel
p1081
(lp1082
sVMeera Mahadevan
p1083
(lp1084
VKittenTikka
p1085
aVtweera87
p1086
asVLisa Kwan
p1087
(lp1088
Vlisakwan
p1089
aVsakuraliz
p1090
aVangelic1804
p1091
aVlisakwan01
p1092
aVLisakwan1
p1093
aVkookoobun
p1094
aVykk3388
p1095
aVhellokittynight
p1096
aVkwanswan123
p1097
aVsyslib2010
p1098
aVLisa_Kwan
p1099
aVlccremom
p1100
aVLisawqy
p1101
aVkwanlisa
p1102
aVlblisak
p1103
aVLisaFermanto
p1104
aVpoohss528
p1105
asVSasha Nemeckova
p1106
(lp1107
sVMagan Savant
p1108
(lp1109
sVChristina Loh
p1110
(lp1111
VChristinaaaLoh
p1112
aVchristinaloh
p1113
aVlohchristina
p1114
aVchristinaloh180
p1115
aVChristinaching
p1116
aVUltraStina
p1117
aVdinobubu
p1118
aVclohyp
p1119
aVLoh0721
p1120
aVchristina_loh
p1121
aVLohKistina97
p1122
aVGG05_Christina
p1123
aVEpsonSingapore
p1124
aVchristinaloh18
p1125
asVVarun Manhas
p1126
(lp1127
Vvarunmanhas24
p1128
aVvvvmanhas
p1129
aVVarunManhas7
p1130
aVvarun_manhas
p1131
aVvrnmanhas567
p1132
aVvarunmanhas
p1133
aVvarunmanhas5
p1134
aVvarunmanhas2
p1135
aVvarunmanhas3
p1136
aVvarunmanhas1
p1137
asVLiberte Gregorio
p1138
(lp1139
sVXian Mah
p1140
(lp1141
Vxianmah
p1142
aVsuxian
p1143
aVhuixianxuanya
p1144
aVdhamanandi
p1145
asVSindiso Mnisi Weeks
p1146
(lp1147
sVDavid van Gils
p1148
(lp1149
Vdvglifeismusic
p1150
asVYves Peirsman
p1151
(lp1152
Vyvespeirsman
p1153
asVChristos Makridis
p1154
(lp1155
VChrisGMakridis
p1156
aVC_Makridis
p1157
aVchristosmak1
p1158
aVgreeklover8
p1159
aVCGMakridis
p1160
aVmakridis13
p1161
asVGadryn Higgs
p1162
(lp1163
sVTosin Olatunbosun
p1164
(lp1165
VmopeolatTosin
p1166
aVOlatunbosuntos1
p1167
aVTosinola20
p1168
aVOlatunbosuntosi
p1169
aVOlatty_tosyn
p1170
aVTos081
p1171
asVShai Shen-Orr
p1172
(lp1173
sVJonathan Lok-Chuen Lo
p1174
(lp1175
sVKarry Mchugh
p1176
(lp1177
sVPhilip Stern
p1178
(lp1179
Vsternthinker
p1180
aVAdamPhilipStern
p1181
aVthevacationczar
p1182
aVbooleezg
p1183
aVphilipstern
p1184
aVpsternmd
p1185
aVFDCPA_Lawyer
p1186
aVPhdstern
p1187
aVphilipmstern
p1188
aVphilberrt97
p1189
aVSternPhil97
p1190
aV408046406
p1191
aVPstern123md
p1192
aV9972
p1193
aVGlobalRiskInst
p1194
aVsternwig
p1195
aVpstern57
p1196
aVstern_philip
p1197
aVsternp
p1198
asVAmmad Shaikh
p1199
(lp1200
Vay_shake
p1201
aVammadshaikh1
p1202
aVAmmadShaikh2
p1203
aVAmmadShaikh
p1204
aVShakeBrah
p1205
aVAmmad_13
p1206
aVmaadu91
p1207
aVShake_It_Bitch
p1208
aVshaikh_ammad
p1209
aVamad_shaikh
p1210
asVSamina Taherbhoy
p1211
(lp1212
sVAlex Urbelis
p1213
(lp1214
sVDavid Yerushalmi
p1215
(lp1216
VD_DELUISE
p1217
aVDavidYerushalmi
p1218
aVDavidyerushalm1
p1219
aVDavidshalmi
p1220
aVDido714David
p1221
asVJan Hendrik Witte
p1222
(lp1223
VJH_Witte
p1224
aVWitteJh
p1225
aVmoinz2000
p1226
aVWitteLeeuw
p1227
asVRachelle Biernacka
p1228
(lp1229
Vkristenforlife
p1230
asVSteven Smith
p1231
(lp1232
VSteven26Smith
p1233
aVStevenSmithsays
p1234
aVstevesmithmusic
p1235
aVtheroyale
p1236
aVsharpstick61404
p1237
aVProfStevenSmith
p1238
aVpopeyesm
p1239
asVDaniel Scher
p1240
(lp1241
VBroMontana012
p1242
aVd_scher
p1243
aVdmscher
p1244
aVDmolish94
p1245
aVscher_daniel
p1246
asVRohan Loveland
p1247
(lp1248
VRlovey
p1249
asVLionel van Dongen
p1250
(lp1251
Vlionelvdg
p1252
aVperformBI
p1253
aVvan_lionel
p1254
asVChristina Whittle
p1255
(lp1256
Vcwhittle
p1257
aVsportsgal711
p1258
aVchrissywhittle
p1259
aVTotwhittle85
p1260
aVcwhit59
p1261
asVJulia Neubauer-Babu
p1262
(lp1263
sVThomas Adcock
p1264
(lp1265
V_ABCDEFHI_
p1266
aVtheletterthomas
p1267
aVThomasadcock
p1268
aVtpadcock
p1269
aVpennykicker
p1270
aVlugnut1226
p1271
aVlugz122672
p1272
aVthomas_adcock
p1273
aVthefridge2
p1274
aVCharl289
p1275
aVThomasAdcock1
p1276
aVItsTomAdcock
p1277
aVThomasAAAdcock
p1278
aVAdcockThomas
p1279
aVdalacher
p1280
aV_ebbtide
p1281
aVhazeleyedprince
p1282
aVthomasrayadcock
p1283
asVJerome Declerck
p1284
(lp1285
Vjaii59
p1286
aVDeclerckjeje
p1287
asVEric Verploegen
p1288
(lp1289
Vpressecitron
p1290
aVericverp
p1291
asVElizabeth Gill
p1292
(lp1293
Velizabethgill
p1294
aVLaLiz83
p1295
aVmisshanks
p1296
aVlegsidelizzy
p1297
aVHeadbuck
p1298
aVSarah__Gill
p1299
aVEmmaGill22
p1300
aVscottieDZNTknow
p1301
aVone_tree_gill
p1302
aVegilldesign
p1303
aVElizabethRGill
p1304
aVaidenpiesmommy
p1305
aVEliz_Gill
p1306
aVesgill
p1307
aVlizzioah
p1308
aVlizzycgill
p1309
aVSnick1eFritz
p1310
aVanngilll
p1311
aVtigerlizgill
p1312
asVOlga Gormalova
p1313
(lp1314
Vusubiri
p1315
asVScott Bentley
p1316
(lp1317
Vtotallyhammers
p1318
aVScottBentley
p1319
aVsctbntly
p1320
aVBentleySalon
p1321
aV_ScottBentley
p1322
aVScott__Bentley
p1323
aVscottwbentley
p1324
aVScottyboii92
p1325
aVbentley_scott
p1326
aVscottbentley96
p1327
aVslbentley
p1328
aVscottb10
p1329
aVScotty_Bentley
p1330
aVscottbentley_
p1331
aVbentman013
p1332
aVcambored74
p1333
aV99wheels
p1334
aV_Scott_Bentley
p1335
aVBentleyFlooring
p1336
aVsbentleyMC
p1337
asVOfir Goldberger
p1338
(lp1339
Vofirgold
p1340
aVofirgold1
p1341
asVJef Ausloos
p1342
(lp1343
VJausl00s
p1344
asVRobin Westerberg
p1345
(lp1346
VRobbanSport
p1347
aVcaulkthewagon
p1348
aVrobinwesterberg
p1349
aVWesterbergRobin
p1350
aVbowartist
p1351
aVRobinTDH
p1352
aVRobin_wester
p1353
aVMr_ITDH
p1354
aVyolobooi
p1355
asVCarmel Chan
p1356
(lp1357
ViamCarmelChan
p1358
aVcarmel_chan
p1359
aVcarmelardiente
p1360
aVourfifthhouse
p1361
aVlouieleane
p1362
asVWeiwei Zhang
p1363
(lp1364
VWeiwei71
p1365
aVwwzhang
p1366
aVZENKI_SH
p1367
aVweiweizhang1984
p1368
aVWeiweizhang
p1369
aVzhangwwmav
p1370
aVvivian120707
p1371
aVburdenofhope
p1372
aVzww200208
p1373
aVMuerh
p1374
aVww10412602
p1375
aVvivianzh0721
p1376
aVzhang_weiwei
p1377
aVwzha9962
p1378
aVjirofan
p1379
aVsqzww
p1380
aVWeiweiZhangwh
p1381
aVWeiweiZhang2
p1382
aVWeiweiZB
p1383
asVAngela Kingyens
p1384
(lp1385
VAngelaKingyens
p1386
aVmamavirgo
p1387
asVAdrian Kuhn
p1388
(lp1389
Vakuhn
p1390
aVAMac2984
p1391
aVKuhnAdrian
p1392
aVAdrianKKuhn
p1393
aVnypel1
p1394
aVart_elanddale
p1395
aVadrinavarro
p1396
aVrashisatot
p1397
aVAdrianKuhn606
p1398
aVNESTORKUHN
p1399
asVChris Smith
p1400
(lp1401
VChris_Smth
p1402
aV3_ChrisSmith
p1403
aVitschrissmith
p1404
aVsmithcnn
p1405
aVchrissmith4real
p1406
aVSenChrisSmith
p1407
aVthesmitty15
p1408
aVcoinswithchris
p1409
aVChrisSmith813
p1410
aVsmithwjhg
p1411
aVtheShocKWav3
p1412
aVaChrisSmith
p1413
asVNathaniel Fintz
p1414
(lp1415
Vnfintz
p1416
asVSeamus Abshere
p1417
(lp1418
Vseamusabshere
p1419
asVNishad Jayasundara
p1420
(lp1421
sVJason Dwight Chow
p1422
(lp1423
sVDylan Tatz
p1424
(lp1425
VOpu120
p1426
aVdillywilly01
p1427
aVdillywilly1313
p1428
aVdillywilly74
p1429
asVArne Vandenbroucke
p1430
(lp1431
Varvdenbr
p1432
aVvandenbrouckske
p1433
aVarnevandenbrouc
p1434
aVBrouckke
p1435
asVAbdurazak Mudesir
p1436
(lp1437
Vamudesir
p1438
asVSohrab Madani
p1439
(lp1440
Vsohrabmadani
p1441
aVSohrab_Madani
p1442
asVSung Kim
p1443
(lp1444
Vhunkims
p1445
aVsunghu
p1446
aVActor_Henry_
p1447
aVChangsungkimOK
p1448
aVSj861117sj
p1449
aVsungkim4
p1450
aVsungek
p1451
aVclutch_shot
p1452
aVSprinkleFreak
p1453
aVjunesung
p1454
aVYESUNG
p1455
aVSsung916
p1456
aVKim__Il__Sung
p1457
aVSingerOG
p1458
aV3wind
p1459
aVsungkimdallas
p1460
aVmy7chan
p1461
aVagsungeun
p1462
aVkimmaster77
p1463
aVSmvkimKim
p1464
asVDawei Lin
p1465
(lp1466
ViGenomics
p1467
aVlegodna
p1468
aVdaweilin
p1469
aVdawei_lin
p1470
aVDawei413
p1471
aVAndy0lin7
p1472
asVGeorge Lewis
p1473
(lp1474
Viconoscope
p1475
aVschvin
p1476
aVGreenerTweets
p1477
aVgeorgel87105874
p1478
aVtheotheralso
p1479
aVGeorgeLewisIV
p1480
aVTwinShadowMusic
p1481
aVWaterMan6960
p1482
aVGeorgePaphiti
p1483
aVSporty_George
p1484
aVLewisGeorge_
p1485
aVGeorgeLewis07
p1486
aVGeorgewalker93
p1487
aVgeorgelewiss
p1488
aVGeorge_Lewis
p1489
aVgeorgelewis1710
p1490
aVGLJr02115
p1491
aVEGL123
p1492
aVjorge_lewis
p1493
aVSirEllsworth
p1494
asVHasna Zaher
p1495
(lp1496
VZaherHasna
p1497
aVhasna36
p1498
asVAnn Van Gils
p1499
(lp1500
Vi0love0horses
p1501
aVAnneVanGils1
p1502
aVAnneGils
p1503
asVMartin Rajcan
p1504
(lp1505
Vmartin_rajcan
p1506
aV80xxproofxx
p1507
asVAndrea Bruhn Bove
p1508
(lp1509
sVEdward Sorby
p1510
(lp1511
Vsorbe88
p1512
asVJennifer Rea
p1513
(lp1514
Vsandiegojenrea
p1515
aVjenrea123
p1516
aVJennyLynnRea
p1517
aVJenniferRea
p1518
aVjennalee
p1519
aVjenniferea
p1520
aVJenniferReaLane
p1521
aV_JenRea_
p1522
aVJenniferRea09
p1523
aVDarkGypsyGirl
p1524
aVJen_Rea
p1525
aVjenniferrea2
p1526
aVJenniferRea25
p1527
aVCrias
p1528
aVjrea12
p1529
aVJennra_
p1530
aVreajl
p1531
aVJenRea09
p1532
aVjenhatrea
p1533
aVJReaVP
p1534
asVJosh Kowitt
p1535
(lp1536
sVJun Yong Khoo
p1537
(lp1538
VYongJunKhoo
p1539
asVPushkar Kaul
p1540
(lp1541
Vpushkarkaul
p1542
aVbaijan3
p1543
asVGrace Vesom
p1544
(lp1545
Vthatgracegirl
p1546
aVgracieng
p1547
asVVikrant Chauhan
p1548
(lp1549
Vvikrant_chauhan
p1550
aV2vikrantchauhan
p1551
aVsingh_vky
p1552
aVindia_live10
p1553
aVvikrant_pow
p1554
aVVikrantmamc
p1555
aVvikchauh18
p1556
aVvikchauhan
p1557
aVvikrants1980
p1558
aVvikrantchauhan7
p1559
aVvikrantc18
p1560
aVvikrantchauhan2
p1561
aVvikrantchauhan9
p1562
aVvikrantchauhan8
p1563
aVvikrantchauhan3
p1564
aVvikrantchauhan6
p1565
aVvikrantchauhan5
p1566
aVchauhan_vikrant
p1567
aVvickychauhan93
p1568
aVvikrant3908050
p1569
asVjeroen verhaert
p1570
(lp1571
sVMorgan Lindley
p1572
(lp1573
VDtsdude
p1574
aVMorganLindley
p1575
aVmorganrose13
p1576
aVahsrules
p1577
aVmorganalot
p1578
aVmorganlindley1
p1579
aVLindleyLuHoo
p1580
asVTanuj Puri
p1581
(lp1582
Vtanujpuri
p1583
asVPeter Nordberg
p1584
(lp1585
Vphgn
p1586
aVnordberg66
p1587
aVPeterNordberg1
p1588
aVpetercnordberg
p1589
aVNordbergPeter
p1590
aVPeterNordberg
p1591
aVpeternn
p1592
aVqpxtuw
p1593
aVPidde85
p1594
aVHobokenNJ07030
p1595
asVJames Green
p1596
(lp1597
VJamesLGreen
p1598
aVethjgreen
p1599
aVCarbonJames
p1600
aVGregoryJGreenTW
p1601
aVJamesGreen
p1602
aVjamesgreen_
p1603
aVjamesgreen50
p1604
aV_jamesgreen
p1605
aVJamesGreenInUK
p1606
aV1983_jamesgreen
p1607
aVjames_green11
p1608
aVsimonjamesgreen
p1609
aVslowfoodbrookes
p1610
aVjamesamgreen
p1611
aVjggreen
p1612
aVJMGeezy
p1613
aVJamesANGreen
p1614
aV_JamesGreen_
p1615
aVweb2what
p1616
aVJamesGreen27
p1617
asVLalima Chemjong
p1618
(lp1619
sVDaniel Tunkelang
p1620
(lp1621
Vdtunkelang
p1622
aVDan_McCluskey
p1623
asVJames Ethington
p1624
(lp1625
Vjimethington
p1626
aVjamesethington
p1627
aVEthingtonJames
p1628
aVbanditone131
p1629
aVjeth107
p1630
aVinvestmentguru
p1631
asVSophia Zackrisson
p1632
(lp1633
sVLaura Sarah Sasportas
p1634
(lp1635
sVAdrian Clark
p1636
(lp1637
Vadrianclark
p1638
aVAdrianJSClark
p1639
aVadrianclark1
p1640
aVadrianclark94
p1641
aVAdrianClarkNY
p1642
aVAOhodgson
p1643
aVADRIAN982
p1644
aVDeyLove_Adrian
p1645
aVBloodstock
p1646
aVAC_Golf
p1647
aVAdrianClarkGolf
p1648
aVThe_ClarkAdrian
p1649
aVqprade
p1650
aVadrianjcclark
p1651
aVAydreean
p1652
aVDiggity_Bryce
p1653
aVadrianclark952
p1654
aVIMKing001
p1655
aVadclark85
p1656
asVStephanie Dupont
p1657
(lp1658
Vglitterylight
p1659
aVCrownGarland
p1660
aVxxsteph_84
p1661
aVTheRye9711
p1662
aVDuPont0674
p1663
aVSteph_Dupont
p1664
aVNinieDupont
p1665
aVSDuPont3
p1666
aVscrubbin007
p1667
aVstedup
p1668
aVstephlilybet
p1669
aVhelyzeathena
p1670
aVStephLeiDUPONT
p1671
aVstephaniedupon5
p1672
aVstephaniedupon1
p1673
aVTiphany27
p1674
aVonlygottatheone
p1675
aVstennanie
p1676
aVdidierlacaille
p1677
aVstephaniedupon2
p1678
asVWaut Vandenhoeck
p1679
(lp1680
sVMichael Thornton
p1681
(lp1682
Vmthornton78
p1683
aVbisping
p1684
aVmthorntoncpa
p1685
aVThorntonMPT
p1686
aVmikethornton_
p1687
aVmdtatlinc
p1688
aVnewaccount
p1689
aVAppalachan
p1690
aVOSUMike
p1691
aVjoycealive
p1692
aVMrMJThornton
p1693
aVTexascosmetic
p1694
aVTupidtito
p1695
aVThemizz20
p1696
aVThornMike
p1697
aVe4miket
p1698
aVthormtjlt38
p1699
aVAAA247BailBonds
p1700
aVVirtualTrnr
p1701
aVmichaeljames001
p1702
asVTunde Szilagyi
p1703
(lp1704
VFairy_Hada_Tund
p1705
aVtunde_szilagyi
p1706
aVtundisz
p1707
aVtucsisz
p1708
aVHada_Fairy_Tund
p1709
aVkiscica21
p1710
asVNavaline Quach
p1711
(lp1712
Vnavaline
p1713
asVD.J. Kleinbaum
p1714
(lp1715
sVLaura Smith
p1716
(lp1717
Vlaurasmith0
p1718
aVMiss_LauraLou
p1719
aVlaurasmith_1995
p1720
aVlaurasmith642
p1721
aVLaura_Smith__
p1722
aVlaurasmith_echo
p1723
aVlaurasmith012
p1724
aVlaurasmith272
p1725
aVlaurasmith60
p1726
aVlaurasmith051
p1727
aV__LauraSmith
p1728
aV_laurasmith92
p1729
aVlaurasmith1150
p1730
aVLaurasmith010
p1731
aVlauralayne24
p1732
aVDevotionL
p1733
aVLaurasmith_94
p1734
aVlaurasmithmusic
p1735
aVlaurasmithTCSG
p1736
asVSteven Borremans
p1737
(lp1738
VZeRoyalViking
p1739
aVStevenBorremans
p1740
aVborrislas
p1741
asVVijay Krishnan
p1742
(lp1743
Vbucharesttutor
p1744
aVvijaykrishnan
p1745
aVkrishnanvijay
p1746
aVsillygloop
p1747
aVvijayreports
p1748
aVenterindia
p1749
aVVJ_Krishnan
p1750
aVcenterofright
p1751
aVdvijaykrishnan
p1752
aVvijay1976
p1753
aVvkrishnano7
p1754
aVasinian2007
p1755
aVvijkris
p1756
aVyajivkrish
p1757
aVvj_chinnu
p1758
aVvijaykrismenon
p1759
aVVIjayKrishnan83
p1760
aVPutputji
p1761
aVvj4sure
p1762
aVVijayKrishnan16
p1763
asVDevyani Parameshwar
p1764
(lp1765
sVAlexander Smits
p1766
(lp1767
Valexandersmits
p1768
aVAlexanderSmits1
p1769
aVl3xuss
p1770
asVEd Bullard
p1771
(lp1772
VBullskie
p1773
aVbullarde
p1774
aVedbull2011
p1775
aVEdbo41
p1776
asVGregory Boyd
p1777
(lp1778
Vgrgboyd
p1779
aVgregoryseed
p1780
aVgroovesville
p1781
aVGregoryBoyd
p1782
aVgb_0407
p1783
aVgregersimi
p1784
aVgr8liteOB
p1785
aVRealGregoryBoyd
p1786
aVgregb0405
p1787
aVgboydpix
p1788
aVgregoryboyd2530
p1789
aVgregoryboyd120
p1790
aVGbjJr
p1791
aVUrbanGrayfield
p1792
aVman_on_moon17
p1793
aVgregory_boyd
p1794
aVtheboydster
p1795
aVgrego_lilbd
p1796
aVprof_xigente
p1797
asVPushkar Joshi
p1798
(lp1799
Vrobinhood_joshi
p1800
aVpush7joshi
p1801
aVpushkarjoshi25
p1802
aVpushkarjoshi
p1803
aVpushjosh
p1804
aVPushkar_Jo
p1805
aVjoshipc19761
p1806
aVpushkar2609
p1807
aVjoshipushkar1
p1808
aVpjpushkar
p1809
aVpushy4u
p1810
aVforpushkarjoshi
p1811
aVpushkarjoshi15
p1812
aVpushkarjoshi2
p1813
aVpushkarjoshi7
p1814
aVpushkarjoshi06
p1815
aVpushkarjoshi410
p1816
aVpushkarjoshi11
p1817
aVPUSHKARJOSHI4
p1818
aVPushkarjoshi6
p1819
asVBenjamin Hackel
p1820
(lp1821
sVKeren Ziv
p1822
(lp1823
Vkerenziv
p1824
aVzivkeren93
p1825
aVzkeren
p1826
aVzvkeren
p1827
asVLaura Elias
p1828
(lp1829
Vlauraelias_
p1830
aVlaura_elias
p1831
aVlauraeliasm
p1832
aVProfessorLaura
p1833
aVleelonline
p1834
aVlauraelirey
p1835
aVSheccid20
p1836
aVlauraelias5
p1837
aVLauraLElias
p1838
aVlauracharallo
p1839
aVmarialauraelias
p1840
aVLauChan96
p1841
aVlauraelias2
p1842
aVLAURAELIAS02
p1843
aVLAURAELIAS4
p1844
aVlauraelias80
p1845
aVlaura_amparo
p1846
aVLaura6123
p1847
aVLau_laurae
p1848
asVCarmen Loh
p1849
(lp1850
VCarmenL0h
p1851
aVCarmenLoh93
p1852
aVMsz_CarStar
p1853
aVcramender
p1854
aVcarmenloh5368
p1855
aVcarmenloh1788
p1856
aVCarmenlohLoh
p1857
aVCarmenL2609
p1858
aVcarmen_manman
p1859
aVcarmen8978
p1860
aVkarmun0626
p1861
aVCarMeNCarMenLOH
p1862
aVcarmen5368
p1863
aVmanman1406
p1864
aVCarmenLKW
p1865
aVcarmen_loh
p1866
aVCarrmmeen
p1867
asVSarah Bond
p1868
(lp1869
VSheLovesTelly
p1870
aVSarahEBond
p1871
aVSarahBondKSU
p1872
aVfreaknose
p1873
aVsarahbond5
p1874
aVBobbysGirlCakes
p1875
aVladymushy
p1876
aVsarahbond10
p1877
aVsarahbond8
p1878
aVstarah
p1879
aVSarahBondMedia
p1880
aVBlondini006
p1881
aVsarahbond2009
p1882
aVSarahbond1984
p1883
aVBond_SJ
p1884
aVsarahbond20
p1885
aVthetvpusher
p1886
aVsarahlorraineAK
p1887
aVmssarahbond
p1888
aVforbusinessake
p1889
asVWarren Mar
p1890
(lp1891
VMarWarren
p1892
aVWarrenMar
p1893
aVmar_warren
p1894
asVNatesh Parashurama
p1895
(lp1896
Vbayboomer
p1897
asVJulie Baleriaux
p1898
(lp1899
sVPeter Reiss
p1900
(lp1901
VPeterReiss
p1902
aVmangoman47
p1903
aVshane_reiss
p1904
aVpeteyreiss
p1905
aV4stepsmedia
p1906
aVMarveloustelly
p1907
aVReissPeter
p1908
aVMasunak
p1909
aVelreesio
p1910
aVpwr2xl
p1911
aVPeterLReiss
p1912
aVHobokenNJ07030
p1913
aVpeterdreiss
p1914
aVhaushueterforum
p1915
aVreissvine
p1916
asVSandra Jurado
p1917
(lp1918
Vss9508
p1919
aVsandriiux
p1920
aVsandrajurado87
p1921
aVSandraJurado4
p1922
aVSandraJurado9
p1923
aVsandy_2289
p1924
aVKatyJurado
p1925
aVsandrajurado21
p1926
aVSANDRAJURADO
p1927
aVsandrajurado89
p1928
aVsandrajurado15
p1929
aVsandrajurado10
p1930
aVSANDRAJURADO45
p1931
aVSandrajurado11
p1932
aVsandrajurado5
p1933
aVSandrajurado2
p1934
aVSandrajurado7
p1935
aVsandrajurado3
p1936
aVsandrajurados
p1937
aVSandraJGuijarro
p1938
asVAntoniya Georgieva
p1939
(lp1940
Vtrinitymariya
p1941
aVAbsolutna
p1942
aVbeztchenna
p1943
aVAntoniya1983
p1944
asVKaty Chen
p1945
(lp1946
VKatyChenn
p1947
aVkaratekate1
p1948
aVkatycchen
p1949
aVKatychen3110
p1950
aVluckieststar
p1951
aVkatychen0808
p1952
aVkaystar10
p1953
aVkatyytchen04
p1954
aVkatychen
p1955
aVLoveCnra
p1956
aVKatyChen123
p1957
aVkaty0094
p1958
aVheiikathyy
p1959
aVehgdshiloh
p1960
aVchenchialing
p1961
aVchen_katy
p1962
aVc_kwor1d
p1963
asVJanice Nickel
p1964
(lp1965
Vnanajan18
p1966
aVbunkie52
p1967
aVjannickel55
p1968
aVnickel587
p1969
aVNicoleMonique_
p1970
aV_jayCOLD
p1971
asVJeff Siewerdsen
p1972
(lp1973
VJeffSiewerdsen
p1974
asVDevaveena Dey
p1975
(lp1976
VDevaveena
p1977
asVNavish Jain
p1978
(lp1979
Vnavishjain
p1980
aVjainnavish
p1981
asVChristiaan Vloemans
p1982
(lp1983
VCVloemans
p1984
asVKathryn Zandbergen
p1985
(lp1986
sVAlexandra Nee
p1987
(lp1988
Valexandranee
p1989
aValexandra_nee
p1990
aVzandranee
p1991
aVmexicats787
p1992
aValexalester
p1993
aVNeeAlexandra
p1994
aValex199208
p1995
aVAlexaleste
p1996
asVNorbert Pelc
p1997
(lp1998
VdoubleThinkCz
p1999
asVSimon Mawer
p2000
(lp2001
Vsjmawer
p2002
aVsmamawer
p2003
aVsimonmawer5
p2004
aVsimonmawer79
p2005
aVsimonmawer
p2006
aVsimonmawer3
p2007
aVsimonmawer1
p2008
aVsimonmawer2
p2009
aVBambogey
p2010
aVsimon_mawer
p2011
aVsimonm90
p2012
aVMorsel99
p2013
aVMawer68
p2014
aVcrazycarer
p2015
aVMawerSimon
p2016
asVKranthi Kode
p2017
(lp2018
VKranthiKode
p2019
aVpanileka
p2020
aVdrkranthi
p2021
asVNisha Dhawan
p2022
(lp2023
Vdhawannisha
p2024
aVnishadhawan1
p2025
aVnishadhawan2
p2026
aVnishadhawan3
p2027
aVNishaDhawan11
p2028
aVNishDhawan
p2029
aVnishadhawan
p2030
asVAnn-Katherine Carton
p2031
(lp2032
sVRebecca Fahrig
p2033
(lp2034
sVSarah Bohndiek
p2035
(lp2036
VSarahBohndiek
p2037
aVsasinshort
p2038
asVJeff Chi-Tat Law
p2039
(lp2040
sVStavros Prionas
p2041
(lp2042
Vsprionas
p2043
asVYiqiao Tang
p2044
(lp2045
Vyqtang
p2046
asVMartin Tornai
p2047
(lp2048
VVader552
p2049
asVLaetitia Verhetsel
p2050
(lp2051
sVLaura Pereira
p2052
(lp2053
Vlaurap18
p2054
aVlaurapereira
p2055
aV___laurapereira
p2056
aVlaurapereiras
p2057
aVlaurapereira98
p2058
aVlaups_12
p2059
aVlolinhacpo
p2060
aVmlauraa
p2061
aVlauripereirar
p2062
aVlaurinhabp
p2063
aVlbpereira
p2064
aVLaurapereira_6
p2065
aVlaurapereira87
p2066
aVFansPereiraLauA
p2067
aVLaurapereira_04
p2068
aVLauraRM92
p2069
aVlaurawnn
p2070
aVlauraapereira_
p2071
aVLaurinhaa8
p2072
aVLauuPereiira
p2073
asVJohn Kulback
p2074
(lp2075
sVJustin Cohen
p2076
(lp2077
VIMJustinCohen
p2078
aVjustincohen
p2079
aVjuscohen
p2080
aVjustin_cohen
p2081
aVjustincohen1
p2082
aVJustinPresents
p2083
aVJustinCohen87
p2084
aVJustinCohen01
p2085
aVtrippdup
p2086
aVjustinscohen
p2087
aVJustinCohen44
p2088
aVThe__JC
p2089
aVJustinCohenn
p2090
aVdeejay_recs
p2091
aVjustinbcohen
p2092
aVluckyspinmusic
p2093
aVjCodizzle
p2094
aVjustncohen
p2095
aVcohen_brother
p2096
asVJake Klamka
p2097
(lp2098
Vjakeklamka
p2099
asVBrian Boates
p2100
(lp2101
Vbrianboates
p2102
aVbriantboates
p2103
aVBrianWithBuzz
p2104
aVboates27
p2105
asVPierrick Bouffaron
p2106
(lp2107
sVAndre Bach
p2108
(lp2109
VNonnormalizable
p2110
aVAndreBach_
p2111
aVbach_alexandre
p2112
aVandrebach
p2113
aVandre_bach
p2114
aVAndreBachTonga1
p2115
aVandre5thh
p2116
aVOli888
p2117
aVAdenilsonBach
p2118
aVpretendz
p2119
aVAndre_Bach_
p2120
aVbach455
p2121
aVjefferson_gege
p2122
aVAndreBachTongan
p2123
aVHOLLYWOODSKINS
p2124
aVAndre_W_Bach
p2125
aVbach_andre
p2126
asVLev Sviridov
p2127
(lp2128
sVNathan Cahill
p2129
(lp2130
Vnathancahill
p2131
aVForm7Function
p2132
aVNathanthetwitt
p2133
aVnmcahill
p2134
aVnathan_cahill
p2135
aVitsmrcahill
p2136
aVNathAnimaaaaal
p2137
aVNathanCahill1
p2138
aVcahill_nathan
p2139
aVNayNerd1
p2140
aVnpcahill1234
p2141
aVNcCaliba
p2142
aVnathanfi6
p2143
aVmusical_nath
p2144
aVCahillNathan
p2145
aVnathancahill579
p2146
aVbarbercahill
p2147
aVNathanCahill99
p2148
aVncahil
p2149
asVAileen Hoehne
p2150
(lp2151
VEarleanyqrb
p2152
asVNandita Dinesh
p2153
(lp2154
Vnandu89
p2155
asVAlistair Hann
p2156
(lp2157
Valistairhann
p2158
asVGourab De
p2159
(lp2160
VGourabde007
p2161
aVgourab_de
p2162
aVgourab33
p2163
aVgaurabde11
p2164
aVAndreBolanho_
p2165
aVgourabde1
p2166
aVGourabDee
p2167
asVSimon Scheuring
p2168
(lp2169
sVSuvda Myagmar
p2170
(lp2171
VsuvdaM
p2172
asVEdward Graves
p2173
(lp2174
VEdward_Graves
p2175
aVedgraves
p2176
aVEdwardGraves
p2177
aVgraveseddie
p2178
aVedwardgraves323
p2179
aVedwardgraves1
p2180
aVedwardcgraves
p2181
aVgraves_edward
p2182
aVCheever55
p2183
aVDanielgraves123
p2184
aVedograves
p2185
aVgravesedward
p2186
aVedwardccgraves
p2187
aVEdwardGraves2
p2188
aVeddiegraves
p2189
aVbugzbunny508
p2190
aVdangertree
p2191
aVEDgravez21
p2192
aVgtransise
p2193
aVEdwardG87
p2194
asVLeonid Pereyaslavets
p2195
(lp2196
sVNamrata Kothari
p2197
(lp2198
Vnamratakothari
p2199
aVsweet_namu07
p2200
aVnamy326
p2201
aVkotharinamrata
p2202
aVNamrataKothari1
p2203
aVcharmingnpretty
p2204
aV5kothari
p2205
aVNamrataKo
p2206
asVAmy Jie Yang
p2207
(lp2208
sS'linkedInNameListOrdered'
p2209
(lp2210
g2129
ag1388
ag2097
ag2108
ag140
ag716
ag2100
ag1620
ag672
ag143
ag439
ag1006
ag1711
ag1544
ag677
ag1255
ag1338
ag465
ag752
ag2052
ag1465
ag644
ag1742
ag491
ag860
ag1417
ag355
ag908
ag963
ag599
ag119
ag729
ag2022
ag394
ag651
ag1681
ag65
ag749
ag2076
ag1400
ag292
ag1384
ag38
ag1636
ag1151
ag155
ag1548
ag73
ag1443
ag1231
ag1044
ag2000
ag1316
ag1868
ag428
ag1900
ag1978
ag1414
ag1895
ag946
ag362
ag1342
ag1424
ag68
ag1430
ag1039
ag1199
ag2044
ag1140
ag86
ag1363
ag1890
ag1126
ag1703
ag1164
ag93
ag1264
ag1015
ag1581
ag2170
ag358
ag176
ag17
ag1737
ag534
ag1657
ag2041
ag553
ag1439
ag1009
ag648
ag420
ag97
ag2035
ag1917
ag433
ag577
ag764
ag1247
ag1345
ag512
ag1060
ag316
ag613
ag620
ag550
ag1228
ag927
ag556
ag1540
ag1798
ag985
ag1178
ag1584
ag755
ag1313
ag1997
aVNikhil Puri
p2211
ag857
ag1
ag786
ag83
ag2153
ag2197
ag1572
ag1083
ag391
ag719
ag695
ag2047
ag1504
ag245
aVMarilyn Waite
p2212
ag547
ag369
ag1087
ag1250
ag724
ag1716
ag1828
ag825
ag2017
ag1822
ag1945
ag425
ag60
ag1537
ag149
ag329
ag271
ag197
ag897
ag1284
ag1513
ag1972
ag1964
ag1222
ag1596
ag1624
ag541
ag1495
ag1777
ag2159
ag1473
ag802
ag1288
ag365
ag814
ag1292
ag1510
ag2173
ag1771
ag617
ag1975
ag1148
ag1215
ag249
ag1240
aVDan Schlager
p2213
aVDC Jayasundera
p2214
ag416
ag1154
ag1110
ag1982
ag1849
ag1356
ag958
ag878
aVAnu Devi
p2215
ag1939
ag852
ag1499
ag894
ag2156
ag1987
ag1766
ag2150
ag219
ag1436
ag1570
ag314
ag823
ag63
ag1679
ag846
ag1632
ag1146
ag2168
ag153
ag1172
ag1106
ag1211
ag693
ag892
ag1013
ag2033
ag2106
ag463
ag243
ag760
ag850
ag1420
ag1037
aVNeeraj Nevatia
p2216
ag241
ag461
ag642
ag1108
ag1138
ag2127
ag2195
ag1634
ag1618
ag2050
ag906
ag1985
ag1176
ag902
ag1898
ag1262
ag1535
ag1174
ag2074
ag904
ag2039
ag900
ag353
ag1422
ag1081
ag848
ag1162
ag489
ag1042
ag762
ag1764
ag675
ag487
ag1714
ag545
ag727
ag855
ag1820
ag2031
ag351
ag1508
ag2207
ag1213
ag71
asg2214
(lp2217
Vdcjaya
p2218
aVdavecostantini
p2219
asg2212
(lp2220
VMariIyNMoNroE
p2221
aVMarilynWaite
p2222
aVMarilynstudio
p2223
aVmarilyn_waite
p2224
aVMaza50
p2225
aVMJWT1
p2226
aVSheiladog
p2227
aVmpwstudios
p2228
aVhollymilliechar
p2229
aVwhslibrarylady
p2230
aVakaMommaMJ
p2231
aVMarilynHoran
p2232
asg2215
(lp2233
Vanudevi
p2234
aVAnuDevi11
p2235
aVDrAnuDevi
p2236
aVdesigirlanu
p2237
aVdevi_anu
p2238
aVAnuSiri9
p2239
aVanudevi2
p2240
aVanudevi1
p2241
asg2213
(lp2242
Vzoltarandzipi
p2243
asg2211
(lp2244
Vnikhilpuri
p2245
aVnikhil_puri7
p2246
aVnikzealand
p2247
aVnikhilpure
p2248
aVNixPure
p2249
aVnikhilpuri11
p2250
aVnikhilpuri123
p2251
aVnikhilpuri3
p2252
aVnikhilpuri1986
p2253
aVNIKHILPURI1
p2254
aVnikhilpuri7
p2255
aVnikhilpuri2
p2256
aVNIKHILPURI89
p2257
aVXnikhilX17
p2258
aVnikhil121091
p2259
aVnpurinikhil
p2260
aVnikhilnickpuri
p2261
aVhardtofail
p2262
aVniteshpuri98
p2263
aVnikhilnp
p2264
asg2216
(lp2265
s.